; Function Attrs: mustprogress nounwind uwtable
define dso_local noundef ptr @_ZN4node7tracing15NodeTraceBuffer13AddTraceEventEPm(ptr noundef nonnull align 8 dereferenceable(584) %this, ptr nocapture noundef writeonly %handle) unnamed_addr #0 align 2 {
entry:
  %current_buf_.i = getelementptr inbounds i8, ptr %this, i64 368
  %0 = load atomic i64, ptr %current_buf_.i seq_cst, align 8
  %atomic-temp.i.0.i.i = inttoptr i64 %0 to ptr
  %total_chunks_.i.i = getelementptr inbounds i8, ptr %atomic-temp.i.0.i.i, i64 88
  %1 = load i64, ptr %total_chunks_.i.i, align 8
  %max_chunks_.i.i = getelementptr inbounds i8, ptr %atomic-temp.i.0.i.i, i64 48
  %2 = load i64, ptr %max_chunks_.i.i, align 8
  %cmp.i.i = icmp eq i64 %1, %2
  br i1 %cmp.i.i, label %_ZNK4node7tracing19InternalTraceBuffer6IsFullEv.exit.i, label %if.end

_ZNK4node7tracing19InternalTraceBuffer6IsFullEv.exit.i: ; preds = %entry
  %chunks_.i.i = getelementptr inbounds i8, ptr %atomic-temp.i.0.i.i, i64 64
  %3 = load ptr, ptr %chunks_.i.i, align 8
  %4 = getelementptr %"class.std::unique_ptr.2", ptr %3, i64 %1
  %add.ptr.i.i.i = getelementptr i8, ptr %4, i64 -8
  %5 = load ptr, ptr %add.ptr.i.i.i, align 8
  %6 = load i64, ptr %5, align 8
  %cmp.i.i.i = icmp eq i64 %6, 64
  br i1 %cmp.i.i.i, label %if.then.i, label %if.end

if.then.i:                                        ; preds = %_ZNK4node7tracing19InternalTraceBuffer6IsFullEv.exit.i
  %flush_signal_.i = getelementptr inbounds i8, ptr %this, i64 16
  %call3.i = tail call i32 @uv_async_send(ptr noundef nonnull %flush_signal_.i) #13
  %buffer1_.i = getelementptr inbounds i8, ptr %this, i64 376
  %cmp.i = icmp eq ptr %buffer1_.i, %atomic-temp.i.0.i.i
  %buffer2_.i = getelementptr inbounds i8, ptr %this, i64 480
  %cond.i = select i1 %cmp.i, ptr %buffer2_.i, ptr %buffer1_.i
  %total_chunks_.i3.i = getelementptr inbounds i8, ptr %cond.i, i64 88
  %7 = load i64, ptr %total_chunks_.i3.i, align 8
  %max_chunks_.i4.i = getelementptr inbounds i8, ptr %cond.i, i64 48
  %8 = load i64, ptr %max_chunks_.i4.i, align 8
  %cmp.i5.i = icmp eq i64 %7, %8
  br i1 %cmp.i5.i, label %_ZNK4node7tracing19InternalTraceBuffer6IsFullEv.exit10.i, label %if.then6.i

_ZNK4node7tracing19InternalTraceBuffer6IsFullEv.exit10.i: ; preds = %if.then.i
  %chunks_.i7.i = getelementptr inbounds i8, ptr %cond.i, i64 64
  %9 = load ptr, ptr %chunks_.i7.i, align 8
  %10 = getelementptr %"class.std::unique_ptr.2", ptr %9, i64 %7
  %add.ptr.i.i8.i = getelementptr i8, ptr %10, i64 -8
  %11 = load ptr, ptr %add.ptr.i.i8.i, align 8
  %12 = load i64, ptr %11, align 8
  %cmp.i.i9.i = icmp eq i64 %12, 64
  br i1 %cmp.i.i9.i, label %if.then, label %if.then6.i

if.then6.i:                                       ; preds = %_ZNK4node7tracing19InternalTraceBuffer6IsFullEv.exit10.i, %if.then.i
  %13 = ptrtoint ptr %cond.i to i64
  store atomic i64 %13, ptr %current_buf_.i seq_cst, align 8
  br label %if.end

if.then:                                          ; preds = %_ZNK4node7tracing19InternalTraceBuffer6IsFullEv.exit10.i
  store i64 0, ptr %handle, align 8
  br label %return

if.end:                                           ; preds = %if.then6.i, %_ZNK4node7tracing19InternalTraceBuffer6IsFullEv.exit.i, %entry
  %14 = load atomic i64, ptr %current_buf_.i seq_cst, align 8
  %atomic-temp.i.0.i = inttoptr i64 %14 to ptr
  %call3 = tail call noundef ptr @_ZN4node7tracing19InternalTraceBuffer13AddTraceEventEPm(ptr noundef nonnull align 8 dereferenceable(104) %atomic-temp.i.0.i, ptr noundef %handle)
  br label %return

return:                                           ; preds = %if.end, %if.then
  %retval.0 = phi ptr [ %call3, %if.end ], [ null, %if.then ]
  ret ptr %retval.0
}